target datalayout = "e-m:e-p270:32:32-p271:32:32-p272:64:64-i64:64-i128:128-f80:128-n8:16:32:64-S128"
target triple = "x86_64-pc-linux-gnu"

%struct.redisReply = type { i32, i64, double, i64, ptr, [4 x i8], i64, ptr }
%struct.clusterManagerNode = type { ptr, ptr, ptr, i32, i32, i64, i64, i64, i32, ptr, ptr, i32, [16384 x i8], i32, i32, ptr, ptr, ptr, i32, i32, float, i32 }

@.str.168 = private unnamed_addr constant [35 x i8] c"Node %s:%d replied with error:\0A%s\0A\00", align 1
@.str.293 = private unnamed_addr constant [20 x i8] c"CLUSTER DELSLOTS %d\00", align 1

; Function Attrs: nounwind uwtable
define internal i32 @clusterManagerCheckRedisReply(ptr noundef %0, ptr noundef %1, ptr noundef %2) #0 {
  %4 = alloca i32, align 4
  %5 = alloca ptr, align 8
  %6 = alloca ptr, align 8
  %7 = alloca ptr, align 8
  %8 = alloca i32, align 4
  %9 = alloca i32, align 4
  store ptr %0, ptr %5, align 8, !tbaa !88
  store ptr %1, ptr %6, align 8, !tbaa !46
  store ptr %2, ptr %7, align 8, !tbaa !42
  call void @llvm.lifetime.start.p0(i64 4, ptr %8) #15
  store i32 0, ptr %8, align 4, !tbaa !10
  %10 = load ptr, ptr %6, align 8, !tbaa !46
  %11 = icmp ne ptr %10, null
  br i1 %11, label %12, label %18

12:                                               ; preds = %3
  %13 = load ptr, ptr %6, align 8, !tbaa !46
  %14 = getelementptr inbounds nuw %struct.redisReply, ptr %13, i32 0, i32 0
  %15 = load i32, ptr %14, align 8, !tbaa !68
  %16 = icmp eq i32 %15, 6
  %17 = zext i1 %16 to i32
  store i32 %17, ptr %8, align 4, !tbaa !10
  br i1 %16, label %18, label %54

18:                                               ; preds = %12, %3
  %19 = load i32, ptr %8, align 4, !tbaa !10
  %20 = icmp ne i32 %19, 0
  br i1 %20, label %21, label %53

21:                                               ; preds = %18
  %22 = load ptr, ptr %7, align 8, !tbaa !42
  %23 = icmp ne ptr %22, null
  br i1 %23, label %24, label %42

24:                                               ; preds = %21
  %25 = load ptr, ptr %6, align 8, !tbaa !46
  %26 = getelementptr inbounds nuw %struct.redisReply, ptr %25, i32 0, i32 3
  %27 = load i64, ptr %26, align 8, !tbaa !76
  %28 = add i64 %27, 1
  %29 = mul i64 %28, 1
  %30 = call noalias ptr @zmalloc(i64 noundef %29) #18
  %31 = load ptr, ptr %7, align 8, !tbaa !42
  store ptr %30, ptr %31, align 8, !tbaa !5
  %32 = load ptr, ptr %7, align 8, !tbaa !42
  %33 = load ptr, ptr %32, align 8, !tbaa !5
  %34 = load ptr, ptr %6, align 8, !tbaa !46
  %35 = getelementptr inbounds nuw %struct.redisReply, ptr %34, i32 0, i32 4
  %36 = load ptr, ptr %35, align 8, !tbaa !54
  %37 = load ptr, ptr %6, align 8, !tbaa !46
  %38 = getelementptr inbounds nuw %struct.redisReply, ptr %37, i32 0, i32 3
  %39 = load i64, ptr %38, align 8, !tbaa !76
  %40 = add i64 %39, 1
  %41 = call i64 @redis_strlcpy(ptr noundef %33, ptr noundef %36, i64 noundef %40)
  br label %52

42:                                               ; preds = %21
  %43 = load ptr, ptr %5, align 8, !tbaa !88
  %44 = getelementptr inbounds nuw %struct.clusterManagerNode, ptr %43, i32 0, i32 2
  %45 = load ptr, ptr %44, align 8, !tbaa !90
  %46 = load ptr, ptr %5, align 8, !tbaa !88
  %47 = getelementptr inbounds nuw %struct.clusterManagerNode, ptr %46, i32 0, i32 3
  %48 = load i32, ptr %47, align 8, !tbaa !93
  %49 = load ptr, ptr %6, align 8, !tbaa !46
  %50 = getelementptr inbounds nuw %struct.redisReply, ptr %49, i32 0, i32 4
  %51 = load ptr, ptr %50, align 8, !tbaa !54
  call void (i32, ptr, ...) @clusterManagerLog(i32 noundef 3, ptr noundef @.str.168, ptr noundef %45, i32 noundef %48, ptr noundef %51)
  br label %52

52:                                               ; preds = %42, %24
  br label %53

53:                                               ; preds = %52, %18
  store i32 0, ptr %4, align 4
  store i32 1, ptr %9, align 4
  br label %55

54:                                               ; preds = %12
  store i32 1, ptr %4, align 4
  store i32 1, ptr %9, align 4
  br label %55

55:                                               ; preds = %54, %53
  call void @llvm.lifetime.end.p0(i64 4, ptr %8) #15
  %56 = load i32, ptr %4, align 4
  ret i32 %56
}

; Function Attrs: nounwind uwtable
define internal i32 @clusterManagerDelSlot(ptr noundef %0, i32 noundef %1, i32 noundef %2) #0 {
  %4 = alloca ptr, align 8
  %5 = alloca i32, align 4
  %6 = alloca i32, align 4
  %7 = alloca ptr, align 8
  %8 = alloca ptr, align 8
  %9 = alloca i32, align 4
  %10 = alloca ptr, align 8
  %11 = alloca ptr, align 8
  store ptr %0, ptr %4, align 8, !tbaa !88
  store i32 %1, ptr %5, align 4, !tbaa !10
  store i32 %2, ptr %6, align 4, !tbaa !10
  call void @llvm.lifetime.start.p0(i64 8, ptr %7) #15
  %12 = load ptr, ptr %4, align 8, !tbaa !88
  %13 = getelementptr inbounds nuw %struct.clusterManagerNode, ptr %12, i32 0, i32 0
  %14 = load ptr, ptr %13, align 8, !tbaa !126
  %15 = load i32, ptr %5, align 4, !tbaa !10
  %16 = call ptr (ptr, ptr, ...) @redisCommand(ptr noundef %14, ptr noundef @.str.293, i32 noundef %15)
  store ptr %16, ptr %7, align 8, !tbaa !46
  call void @llvm.lifetime.start.p0(i64 8, ptr %8) #15
  store ptr null, ptr %8, align 8, !tbaa !5
  call void @llvm.lifetime.start.p0(i64 4, ptr %9) #15
  %17 = load ptr, ptr %4, align 8, !tbaa !88
  %18 = load ptr, ptr %7, align 8, !tbaa !46
  %19 = call i32 @clusterManagerCheckRedisReply(ptr noundef %17, ptr noundef %18, ptr noundef %8)
  store i32 %19, ptr %9, align 4, !tbaa !10
  %20 = load i32, ptr %9, align 4, !tbaa !10
  %21 = icmp ne i32 %20, 0
  br i1 %21, label %54, label %22

22:                                               ; preds = %3
  %23 = load ptr, ptr %7, align 8, !tbaa !46
  %24 = icmp ne ptr %23, null
  br i1 %24, label %25, label %54

25:                                               ; preds = %22
  %26 = load ptr, ptr %7, align 8, !tbaa !46
  %27 = getelementptr inbounds nuw %struct.redisReply, ptr %26, i32 0, i32 0
  %28 = load i32, ptr %27, align 8, !tbaa !68
  %29 = icmp eq i32 %28, 6
  br i1 %29, label %30, label %54

30:                                               ; preds = %25
  %31 = load i32, ptr %6, align 4, !tbaa !10
  %32 = icmp ne i32 %31, 0
  br i1 %32, label %33, label %54

33:                                               ; preds = %30
  call void @llvm.lifetime.start.p0(i64 8, ptr %10) #15
  store ptr null, ptr %10, align 8, !tbaa !5
  call void @llvm.lifetime.start.p0(i64 8, ptr %11) #15
  %34 = load ptr, ptr %4, align 8, !tbaa !88
  %35 = load i32, ptr %5, align 4, !tbaa !10
  %36 = call ptr @clusterManagerGetSlotOwner(ptr noundef %34, i32 noundef %35, ptr noundef %10)
  store ptr %36, ptr %11, align 8, !tbaa !88
  %37 = load ptr, ptr %11, align 8, !tbaa !88
  %38 = icmp ne ptr %37, null
  br i1 %38, label %53, label %39

39:                                               ; preds = %33
  %40 = load ptr, ptr %10, align 8, !tbaa !5
  %41 = icmp eq ptr %40, null
  br i1 %41, label %42, label %43

42:                                               ; preds = %39
  store i32 1, ptr %9, align 4, !tbaa !10
  br label %52

43:                                               ; preds = %39
  %44 = load ptr, ptr %4, align 8, !tbaa !88
  %45 = getelementptr inbounds nuw %struct.clusterManagerNode, ptr %44, i32 0, i32 2
  %46 = load ptr, ptr %45, align 8, !tbaa !90
  %47 = load ptr, ptr %4, align 8, !tbaa !88
  %48 = getelementptr inbounds nuw %struct.clusterManagerNode, ptr %47, i32 0, i32 3
  %49 = load i32, ptr %48, align 8, !tbaa !93
  %50 = load ptr, ptr %10, align 8, !tbaa !5
  call void (i32, ptr, ...) @clusterManagerLog(i32 noundef 3, ptr noundef @.str.168, ptr noundef %46, i32 noundef %49, ptr noundef %50)
  %51 = load ptr, ptr %10, align 8, !tbaa !5
  call void @zfree(ptr noundef %51)
  br label %52

52:                                               ; preds = %43, %42
  br label %53

53:                                               ; preds = %52, %33
  call void @llvm.lifetime.end.p0(i64 8, ptr %11) #15
  call void @llvm.lifetime.end.p0(i64 8, ptr %10) #15
  br label %54

54:                                               ; preds = %53, %30, %25, %22, %3
  %55 = load i32, ptr %9, align 4, !tbaa !10
  %56 = icmp ne i32 %55, 0
  br i1 %56, label %69, label %57

57:                                               ; preds = %54
  %58 = load ptr, ptr %8, align 8, !tbaa !5
  %59 = icmp ne ptr %58, null
  br i1 %59, label %60, label %69

60:                                               ; preds = %57
  %61 = load ptr, ptr %4, align 8, !tbaa !88
  %62 = getelementptr inbounds nuw %struct.clusterManagerNode, ptr %61, i32 0, i32 2
  %63 = load ptr, ptr %62, align 8, !tbaa !90
  %64 = load ptr, ptr %4, align 8, !tbaa !88
  %65 = getelementptr inbounds nuw %struct.clusterManagerNode, ptr %64, i32 0, i32 3
  %66 = load i32, ptr %65, align 8, !tbaa !93
  %67 = load ptr, ptr %8, align 8, !tbaa !5
  call void (i32, ptr, ...) @clusterManagerLog(i32 noundef 3, ptr noundef @.str.168, ptr noundef %63, i32 noundef %66, ptr noundef %67)
  %68 = load ptr, ptr %8, align 8, !tbaa !5
  call void @zfree(ptr noundef %68)
  br label %69

69:                                               ; preds = %60, %57, %54
  %70 = load ptr, ptr %7, align 8, !tbaa !46
  %71 = icmp ne ptr %70, null
  br i1 %71, label %72, label %74

72:                                               ; preds = %69
  %73 = load ptr, ptr %7, align 8, !tbaa !46
  call void @freeReplyObject(ptr noundef %73)
  br label %74

74:                                               ; preds = %72, %69
  %75 = load i32, ptr %9, align 4, !tbaa !10
  call void @llvm.lifetime.end.p0(i64 4, ptr %9) #15
  call void @llvm.lifetime.end.p0(i64 8, ptr %8) #15
  call void @llvm.lifetime.end.p0(i64 8, ptr %7) #15
  ret i32 %75
}