; Function Attrs: nounwind uwtable
define internal fastcc range(i32 0, 2) i32 @clusterManagerDelSlot(ptr noundef readonly captures(none) %0, i32 noundef %1) unnamed_addr #0 {
  %3 = alloca ptr, align 8
  %4 = load ptr, ptr %0, align 8, !tbaa !82
  %5 = tail call ptr (ptr, ptr, ...) @redisCommand(ptr noundef %4, ptr noundef nonnull @.str.293, i32 noundef %1) #33
  %.not.i = icmp eq ptr %5, null
  br i1 %.not.i, label %.thread, label %6

6:                                                ; preds = %2
  %7 = load i32, ptr %5, align 8, !tbaa !56
  %.not19.i = icmp eq i32 %7, 6
  br i1 %.not19.i, label %clusterManagerCheckRedisReply.exit, label %.thread.thread

clusterManagerCheckRedisReply.exit:               ; preds = %6
  %8 = getelementptr inbounds nuw i8, ptr %5, i64 24
  %9 = load i64, ptr %8, align 8, !tbaa !64
  %10 = add i64 %9, 1
  %11 = tail call noalias ptr @zmalloc(i64 noundef %10) #37
  %12 = getelementptr inbounds nuw i8, ptr %5, i64 32
  %13 = load ptr, ptr %12, align 8, !tbaa !36
  %14 = load i64, ptr %8, align 8, !tbaa !64
  %15 = add i64 %14, 1
  %16 = tail call i64 @redis_strlcpy(ptr noundef %11, ptr noundef %13, i64 noundef %15) #33
  %17 = load i32, ptr %5, align 8, !tbaa !56
  %18 = icmp eq i32 %17, 6
  br i1 %18, label %19, label %30

19:                                               ; preds = %clusterManagerCheckRedisReply.exit
  call void @llvm.lifetime.start.p0(i64 8, ptr nonnull %3) #33
  store ptr null, ptr %3, align 8, !tbaa !24
  %.val = load ptr, ptr %0, align 8, !tbaa !82
  %20 = call fastcc ptr @clusterManagerGetSlotOwner(ptr %.val, i32 noundef %1, ptr noundef %3)
  %.not = icmp eq ptr %20, null
  br i1 %.not, label %21, label %29

21:                                               ; preds = %19
  %22 = load ptr, ptr %3, align 8, !tbaa !24
  %23 = icmp eq ptr %22, null
  br i1 %23, label %29, label %24

24:                                               ; preds = %21
  %25 = getelementptr inbounds nuw i8, ptr %0, i64 16
  %26 = load ptr, ptr %25, align 8, !tbaa !74
  %27 = getelementptr inbounds nuw i8, ptr %0, i64 24
  %28 = load i32, ptr %27, align 8, !tbaa !77
  tail call void (i32, ptr, ...) @clusterManagerLog(i32 noundef 3, ptr noundef nonnull @.str.168, ptr noundef %26, i32 noundef %28, ptr noundef nonnull %22)
  tail call void @zfree(ptr noundef nonnull %22) #33
  br label %29

29:                                               ; preds = %21, %24, %19
  %.1 = phi i32 [ 0, %19 ], [ 0, %24 ], [ 1, %21 ]
  call void @llvm.lifetime.end.p0(i64 8, ptr nonnull %3) #33
  br label %30

30:                                               ; preds = %29, %clusterManagerCheckRedisReply.exit
  %.0 = phi i32 [ %.1, %29 ], [ 0, %clusterManagerCheckRedisReply.exit ]
  %31 = icmp eq i32 %.0, 0
  %32 = icmp ne ptr %11, null
  %or.cond5 = and i1 %32, %31
  br i1 %or.cond5, label %33, label %.thread.thread

33:                                               ; preds = %30
  %34 = getelementptr inbounds nuw i8, ptr %0, i64 16
  %35 = load ptr, ptr %34, align 8, !tbaa !74
  %36 = getelementptr inbounds nuw i8, ptr %0, i64 24
  %37 = load i32, ptr %36, align 8, !tbaa !77
  tail call void (i32, ptr, ...) @clusterManagerLog(i32 noundef 3, ptr noundef nonnull @.str.168, ptr noundef %35, i32 noundef %37, ptr noundef nonnull %11)
  tail call void @zfree(ptr noundef nonnull %11) #33
  br label %.thread.thread

.thread.thread:                                   ; preds = %30, %33, %6
  %.03739 = phi i32 [ 0, %33 ], [ 1, %6 ], [ %.0, %30 ]
  tail call void @freeReplyObject(ptr noundef nonnull %5) #33
  br label %.thread

.thread:                                          ; preds = %2, %.thread.thread
  %.03738 = phi i32 [ %.03739, %.thread.thread ], [ 0, %2 ]
  ret i32 %.03738
}